target datalayout = "e-m:e-p270:32:32-p271:32:32-p272:64:64-i64:64-i128:128-f80:128-n8:16:32:64-S128"
target triple = "x86_64-unknown-linux-gnu"

%struct.AddressSpace = type { %struct.rcu_head, ptr, ptr, ptr, i32, i32, ptr, %union.anon.0, %union.anon.1 }
%struct.rcu_head = type { ptr, ptr }
%union.anon.0 = type { %struct.QTailQLink }
%struct.QTailQLink = type { ptr, ptr }
%union.anon.1 = type { %struct.QTailQLink }
%struct.SDHCIState = type { %union.anon, %struct.SDBus, %struct.MemoryRegion, %struct.AddressSpace, ptr, ptr, ptr, ptr, ptr, ptr, i32, i16, i16, i32, i16, i16, [4 x i32], i32, i8, i8, i8, i8, i16, i8, i8, i16, i16, i16, i16, i16, i16, i16, i16, i64, i16, i64, i64, i16, ptr, i32, i16, i8, i8, i8, i32, i8, i8, i8, i8 }
%union.anon = type { %struct.PCIDevice }
%struct.PCIDevice = type { %struct.DeviceState, i8, i8, ptr, ptr, ptr, ptr, ptr, i32, %struct.PCIReqIDCache, [64 x i8], [7 x %struct.PCIIORegion], %struct.AddressSpace, %struct.MemoryRegion, %struct.MemoryRegion, ptr, ptr, [3 x ptr], i8, i8, i32, i8, i32, ptr, ptr, ptr, ptr, ptr, ptr, %struct.MemoryRegion, %struct.MemoryRegion, %struct.MemoryRegion, ptr, i8, i32, i8, %struct.PCIExpressDevice, ptr, ptr, i32, i8, %struct.MemoryRegion, i32, ptr, ptr, ptr, ptr, ptr, i32 }
%struct.DeviceState = type { %struct.Object, ptr, ptr, i8, i8, i64, ptr, i32, i8, ptr, %struct.NamedGPIOListHead, %struct.NamedClockListHead, %struct.BusStateHead, i32, i32, i32, %struct.ResettableState, ptr, %struct.MemReentrancyGuard }
%struct.Object = type { ptr, ptr, ptr, i32, ptr }
%struct.NamedGPIOListHead = type { ptr }
%struct.NamedClockListHead = type { ptr }
%struct.BusStateHead = type { ptr }
%struct.ResettableState = type { i32, i8, i8 }
%struct.MemReentrancyGuard = type { i8 }
%struct.PCIReqIDCache = type { ptr, i32 }
%struct.PCIIORegion = type { i64, i64, i8, ptr, ptr }
%struct.PCIExpressDevice = type { i8, i8, i8, i16, %struct.PCIEAERLog, i16, i16, i16, %struct.PCIESriovPF, %struct.PCIESriovVF }
%struct.PCIEAERLog = type { i16, i16, ptr }
%struct.PCIESriovPF = type { i16, [7 x i8], ptr, ptr }
%struct.PCIESriovVF = type { ptr, i16 }
%struct.SDBus = type { %struct.BusState }
%struct.BusState = type { %struct.Object, ptr, ptr, ptr, i32, i8, i8, i32, %union.BusChildHead, %struct.BusStateEntry, %struct.ResettableState }
%union.BusChildHead = type { %struct.QTailQLink }
%struct.BusStateEntry = type { ptr, ptr }
%struct.MemoryRegion = type { %struct.Object, i8, i8, i8, i8, i8, i8, i8, i8, i8, i8, ptr, ptr, ptr, ptr, ptr, ptr, i32, i128, i64, ptr, i64, i8, i8, i8, i8, i8, ptr, i64, i32, %union.anon.2, %union.anon.3, %union.anon.4, ptr, i32, ptr, ptr, i8 }
%union.anon.2 = type { %struct.QTailQLink }
%union.anon.3 = type { %struct.QTailQLink }
%union.anon.4 = type { %struct.QTailQLink }
%struct.timeval = type { i64, i64 }

@trace_events_enabled_count = external global i32, align 4
@message_with_timestamp = external global i8, align 1
@qemu_loglevel = external global i32, align 4
@_TRACE_SDHCI_ERROR_DSTATE = external global i16, align 2
@.str.44 = private unnamed_addr constant [29 x i8] c"%d@%zu.%06zu:sdhci_error %s\0A\00", align 1
@.str.45 = private unnamed_addr constant [16 x i8] c"sdhci_error %s\0A\00", align 1
@.str.63 = private unnamed_addr constant [23 x i8] c"read from empty buffer\00", align 1
@_TRACE_SDHCI_READ_DATAPORT_DSTATE = external global i16, align 2
@.str.64 = private unnamed_addr constant [88 x i8] c"%d@%zu.%06zu:sdhci_read_dataport all %u bytes of data have been read from input buffer\0A\00", align 1
@.str.65 = private unnamed_addr constant [75 x i8] c"sdhci_read_dataport all %u bytes of data have been read from input buffer\0A\00", align 1

; Function Attrs: nounwind sspstrong uwtable
define internal zeroext i1 @qemu_loglevel_mask(i32 noundef %mask) #0 {
entry:
  %mask.addr = alloca i32, align 4
  store i32 %mask, ptr %mask.addr, align 4
  %0 = load i32, ptr @qemu_loglevel, align 4
  %1 = load i32, ptr %mask.addr, align 4
  %and = and i32 %0, %1
  %cmp = icmp ne i32 %and, 0
  ret i1 %cmp
}

; Function Attrs: nounwind sspstrong uwtable
define internal void @_nocheck__trace_sdhci_read_dataport(i16 noundef zeroext %data_count) #0 {
entry:
  %data_count.addr = alloca i16, align 2
  %_now = alloca %struct.timeval, align 8
  store i16 %data_count, ptr %data_count.addr, align 2
  %0 = load i32, ptr @trace_events_enabled_count, align 4
  %tobool = icmp ne i32 %0, 0
  %lnot = xor i1 %tobool, true
  %lnot1 = xor i1 %lnot, true
  %lnot.ext = zext i1 %lnot1 to i32
  %conv = sext i32 %lnot.ext to i64
  %tobool2 = icmp ne i64 %conv, 0
  br i1 %tobool2, label %land.lhs.true, label %if.end13

land.lhs.true:                                    ; preds = %entry
  %1 = load i16, ptr @_TRACE_SDHCI_READ_DATAPORT_DSTATE, align 2
  %conv3 = zext i16 %1 to i32
  %tobool4 = icmp ne i32 %conv3, 0
  br i1 %tobool4, label %land.lhs.true5, label %if.end13

land.lhs.true5:                                   ; preds = %land.lhs.true
  %call = call zeroext i1 @qemu_loglevel_mask(i32 noundef 32768)
  br i1 %call, label %if.then, label %if.end13

if.then:                                          ; preds = %land.lhs.true5
  %2 = load i8, ptr @message_with_timestamp, align 1
  %tobool7 = trunc i8 %2 to i1
  br i1 %tobool7, label %if.then8, label %if.else

if.then8:                                         ; preds = %if.then
  %call9 = call i32 @gettimeofday(ptr noundef %_now, ptr noundef null) #11
  %call10 = call i32 @qemu_get_thread_id()
  %tv_sec = getelementptr inbounds %struct.timeval, ptr %_now, i32 0, i32 0
  %3 = load i64, ptr %tv_sec, align 8
  %tv_usec = getelementptr inbounds %struct.timeval, ptr %_now, i32 0, i32 1
  %4 = load i64, ptr %tv_usec, align 8
  %5 = load i16, ptr %data_count.addr, align 2
  %conv11 = zext i16 %5 to i32
  call void (ptr, ...) @qemu_log(ptr noundef @.str.64, i32 noundef %call10, i64 noundef %3, i64 noundef %4, i32 noundef %conv11)
  br label %if.end

if.else:                                          ; preds = %if.then
  %6 = load i16, ptr %data_count.addr, align 2
  %conv12 = zext i16 %6 to i32
  call void (ptr, ...) @qemu_log(ptr noundef @.str.65, i32 noundef %conv12)
  br label %if.end

if.end:                                           ; preds = %if.else, %if.then8
  br label %if.end13

if.end13:                                         ; preds = %if.end, %land.lhs.true5, %land.lhs.true, %entry
  ret void
}

; Function Attrs: nounwind sspstrong uwtable
define internal void @_nocheck__trace_sdhci_error(ptr noundef %msg) #0 {
entry:
  %msg.addr = alloca ptr, align 8
  %_now = alloca %struct.timeval, align 8
  store ptr %msg, ptr %msg.addr, align 8
  %0 = load i32, ptr @trace_events_enabled_count, align 4
  %tobool = icmp ne i32 %0, 0
  %lnot = xor i1 %tobool, true
  %lnot1 = xor i1 %lnot, true
  %lnot.ext = zext i1 %lnot1 to i32
  %conv = sext i32 %lnot.ext to i64
  %tobool2 = icmp ne i64 %conv, 0
  br i1 %tobool2, label %land.lhs.true, label %if.end11

land.lhs.true:                                    ; preds = %entry
  %1 = load i16, ptr @_TRACE_SDHCI_ERROR_DSTATE, align 2
  %conv3 = zext i16 %1 to i32
  %tobool4 = icmp ne i32 %conv3, 0
  br i1 %tobool4, label %land.lhs.true5, label %if.end11

land.lhs.true5:                                   ; preds = %land.lhs.true
  %call = call zeroext i1 @qemu_loglevel_mask(i32 noundef 32768)
  br i1 %call, label %if.then, label %if.end11

if.then:                                          ; preds = %land.lhs.true5
  %2 = load i8, ptr @message_with_timestamp, align 1
  %tobool7 = trunc i8 %2 to i1
  br i1 %tobool7, label %if.then8, label %if.else

if.then8:                                         ; preds = %if.then
  %call9 = call i32 @gettimeofday(ptr noundef %_now, ptr noundef null) #11
  %call10 = call i32 @qemu_get_thread_id()
  %tv_sec = getelementptr inbounds %struct.timeval, ptr %_now, i32 0, i32 0
  %3 = load i64, ptr %tv_sec, align 8
  %tv_usec = getelementptr inbounds %struct.timeval, ptr %_now, i32 0, i32 1
  %4 = load i64, ptr %tv_usec, align 8
  %5 = load ptr, ptr %msg.addr, align 8
  call void (ptr, ...) @qemu_log(ptr noundef @.str.44, i32 noundef %call10, i64 noundef %3, i64 noundef %4, ptr noundef %5)
  br label %if.end

if.else:                                          ; preds = %if.then
  %6 = load ptr, ptr %msg.addr, align 8
  call void (ptr, ...) @qemu_log(ptr noundef @.str.45, ptr noundef %6)
  br label %if.end

if.end:                                           ; preds = %if.else, %if.then8
  br label %if.end11

if.end11:                                         ; preds = %if.end, %land.lhs.true5, %land.lhs.true, %entry
  ret void
}

; Function Attrs: nounwind sspstrong uwtable
define internal void @trace_sdhci_read_dataport(i16 noundef zeroext %data_count) #0 {
entry:
  %data_count.addr = alloca i16, align 2
  store i16 %data_count, ptr %data_count.addr, align 2
  %0 = load i16, ptr %data_count.addr, align 2
  call void @_nocheck__trace_sdhci_read_dataport(i16 noundef zeroext %0)
  ret void
}

; Function Attrs: nounwind sspstrong uwtable
define internal void @trace_sdhci_error(ptr noundef %msg) #0 {
entry:
  %msg.addr = alloca ptr, align 8
  store ptr %msg, ptr %msg.addr, align 8
  %0 = load ptr, ptr %msg.addr, align 8
  call void @_nocheck__trace_sdhci_error(ptr noundef %0)
  ret void
}

; Function Attrs: nounwind sspstrong uwtable
define internal i32 @sdhci_read_dataport(ptr noundef %s, i32 noundef %size) #0 {
entry:
  %retval = alloca i32, align 4
  %s.addr = alloca ptr, align 8
  %size.addr = alloca i32, align 4
  %value = alloca i32, align 4
  %i = alloca i32, align 4
  store ptr %s, ptr %s.addr, align 8
  store i32 %size, ptr %size.addr, align 4
  store i32 0, ptr %value, align 4
  %0 = load ptr, ptr %s.addr, align 8
  %prnsts = getelementptr inbounds %struct.SDHCIState, ptr %0, i32 0, i32 17
  %1 = load i32, ptr %prnsts, align 8
  %and = and i32 %1, 2048
  %cmp = icmp eq i32 %and, 0
  br i1 %cmp, label %if.then, label %if.end

if.then:                                          ; preds = %entry
  call void @trace_sdhci_error(ptr noundef @.str.63)
  store i32 0, ptr %retval, align 4
  br label %return

if.end:                                           ; preds = %entry
  store i32 0, ptr %i, align 4
  br label %for.cond

for.cond:                                         ; preds = %for.inc, %if.end
  %2 = load i32, ptr %i, align 4
  %3 = load i32, ptr %size.addr, align 4
  %cmp1 = icmp ult i32 %2, %3
  br i1 %cmp1, label %for.body, label %for.end

for.body:                                         ; preds = %for.cond
  %4 = load ptr, ptr %s.addr, align 8
  %fifo_buffer = getelementptr inbounds %struct.SDHCIState, ptr %4, i32 0, i32 38
  %5 = load ptr, ptr %fifo_buffer, align 16
  %6 = load ptr, ptr %s.addr, align 8
  %data_count = getelementptr inbounds %struct.SDHCIState, ptr %6, i32 0, i32 40
  %7 = load i16, ptr %data_count, align 4
  %idxprom = zext i16 %7 to i64
  %arrayidx = getelementptr i8, ptr %5, i64 %idxprom
  %8 = load i8, ptr %arrayidx, align 1
  %conv = zext i8 %8 to i32
  %9 = load i32, ptr %i, align 4
  %mul = mul i32 %9, 8
  %shl = shl i32 %conv, %mul
  %10 = load i32, ptr %value, align 4
  %or = or i32 %10, %shl
  store i32 %or, ptr %value, align 4
  %11 = load ptr, ptr %s.addr, align 8
  %data_count2 = getelementptr inbounds %struct.SDHCIState, ptr %11, i32 0, i32 40
  %12 = load i16, ptr %data_count2, align 4
  %inc = add i16 %12, 1
  store i16 %inc, ptr %data_count2, align 4
  %13 = load ptr, ptr %s.addr, align 8
  %data_count3 = getelementptr inbounds %struct.SDHCIState, ptr %13, i32 0, i32 40
  %14 = load i16, ptr %data_count3, align 4
  %conv4 = zext i16 %14 to i64
  %15 = load ptr, ptr %s.addr, align 8
  %blksize = getelementptr inbounds %struct.SDHCIState, ptr %15, i32 0, i32 11
  %16 = load i16, ptr %blksize, align 4
  %conv5 = zext i16 %16 to i64
  %and6 = and i64 %conv5, 4095
  %cmp7 = icmp sge i64 %conv4, %and6
  br i1 %cmp7, label %if.then9, label %if.end41

if.then9:                                         ; preds = %for.body
  %17 = load ptr, ptr %s.addr, align 8
  %data_count10 = getelementptr inbounds %struct.SDHCIState, ptr %17, i32 0, i32 40
  %18 = load i16, ptr %data_count10, align 4
  call void @trace_sdhci_read_dataport(i16 noundef zeroext %18)
  %19 = load ptr, ptr %s.addr, align 8
  %prnsts11 = getelementptr inbounds %struct.SDHCIState, ptr %19, i32 0, i32 17
  %20 = load i32, ptr %prnsts11, align 8
  %and12 = and i32 %20, -2049
  store i32 %and12, ptr %prnsts11, align 8
  %21 = load ptr, ptr %s.addr, align 8
  %data_count13 = getelementptr inbounds %struct.SDHCIState, ptr %21, i32 0, i32 40
  store i16 0, ptr %data_count13, align 4
  %22 = load ptr, ptr %s.addr, align 8
  %trnmod = getelementptr inbounds %struct.SDHCIState, ptr %22, i32 0, i32 14
  %23 = load i16, ptr %trnmod, align 4
  %conv14 = zext i16 %23 to i32
  %and15 = and i32 %conv14, 2
  %tobool = icmp ne i32 %and15, 0
  br i1 %tobool, label %if.then16, label %if.end17

if.then16:                                        ; preds = %if.then9
  %24 = load ptr, ptr %s.addr, align 8
  %blkcnt = getelementptr inbounds %struct.SDHCIState, ptr %24, i32 0, i32 12
  %25 = load i16, ptr %blkcnt, align 2
  %dec = add i16 %25, -1
  store i16 %dec, ptr %blkcnt, align 2
  br label %if.end17

if.end17:                                         ; preds = %if.then16, %if.then9
  %26 = load ptr, ptr %s.addr, align 8
  %trnmod18 = getelementptr inbounds %struct.SDHCIState, ptr %26, i32 0, i32 14
  %27 = load i16, ptr %trnmod18, align 4
  %conv19 = zext i16 %27 to i32
  %and20 = and i32 %conv19, 32
  %cmp21 = icmp eq i32 %and20, 0
  br i1 %cmp21, label %if.then39, label %lor.lhs.false

lor.lhs.false:                                    ; preds = %if.end17
  %28 = load ptr, ptr %s.addr, align 8
  %trnmod23 = getelementptr inbounds %struct.SDHCIState, ptr %28, i32 0, i32 14
  %29 = load i16, ptr %trnmod23, align 4
  %conv24 = zext i16 %29 to i32
  %and25 = and i32 %conv24, 2
  %tobool26 = icmp ne i32 %and25, 0
  br i1 %tobool26, label %land.lhs.true, label %lor.lhs.false31

land.lhs.true:                                    ; preds = %lor.lhs.false
  %30 = load ptr, ptr %s.addr, align 8
  %blkcnt27 = getelementptr inbounds %struct.SDHCIState, ptr %30, i32 0, i32 12
  %31 = load i16, ptr %blkcnt27, align 2
  %conv28 = zext i16 %31 to i32
  %cmp29 = icmp eq i32 %conv28, 0
  br i1 %cmp29, label %if.then39, label %lor.lhs.false31

lor.lhs.false31:                                  ; preds = %land.lhs.true, %lor.lhs.false
  %32 = load ptr, ptr %s.addr, align 8
  %stopped_state = getelementptr inbounds %struct.SDHCIState, ptr %32, i32 0, i32 41
  %33 = load i8, ptr %stopped_state, align 2
  %conv32 = zext i8 %33 to i32
  %cmp33 = icmp eq i32 %conv32, 1
  br i1 %cmp33, label %land.lhs.true35, label %if.else

land.lhs.true35:                                  ; preds = %lor.lhs.false31
  %34 = load ptr, ptr %s.addr, align 8
  %prnsts36 = getelementptr inbounds %struct.SDHCIState, ptr %34, i32 0, i32 17
  %35 = load i32, ptr %prnsts36, align 8
  %and37 = and i32 %35, 4
  %tobool38 = icmp ne i32 %and37, 0
  br i1 %tobool38, label %if.else, label %if.then39

if.then39:                                        ; preds = %land.lhs.true35, %land.lhs.true, %if.end17
  %36 = load ptr, ptr %s.addr, align 8
  call void @sdhci_end_transfer(ptr noundef %36)
  br label %if.end40

if.else:                                          ; preds = %land.lhs.true35, %lor.lhs.false31
  %37 = load ptr, ptr %s.addr, align 8
  call void @sdhci_read_block_from_card(ptr noundef %37)
  br label %if.end40

if.end40:                                         ; preds = %if.else, %if.then39
  br label %for.end

if.end41:                                         ; preds = %for.body
  br label %for.inc

for.inc:                                          ; preds = %if.end41
  %38 = load i32, ptr %i, align 4
  %inc42 = add i32 %38, 1
  store i32 %inc42, ptr %i, align 4
  br label %for.cond, !llvm.loop !12

for.end:                                          ; preds = %if.end40, %for.cond
  %39 = load i32, ptr %value, align 4
  store i32 %39, ptr %retval, align 4
  br label %return

return:                                           ; preds = %for.end, %if.then
  %40 = load i32, ptr %retval, align 4
  ret i32 %40
}