; Function Attrs: nounwind sspstrong uwtable
define internal fastcc i32 @sdhci_read_dataport(ptr noundef %s, i32 noundef %size) unnamed_addr #0 {
entry:
  %_now.i.i21 = alloca %struct.timeval, align 8
  %_now.i.i = alloca %struct.timeval, align 8
  %prnsts = getelementptr inbounds nuw i8, ptr %s, i64 3176
  %0 = load i32, ptr %prnsts, align 8
  %and = and i32 %0, 2048
  %cmp = icmp eq i32 %and, 0
  br i1 %cmp, label %if.then, label %for.cond.preheader

for.cond.preheader:                               ; preds = %entry
  %cmp136.not = icmp eq i32 %size, 0
  br i1 %cmp136.not, label %return, label %for.body.lr.ph

for.body.lr.ph:                                   ; preds = %for.cond.preheader
  %fifo_buffer = getelementptr inbounds nuw i8, ptr %s, i64 3248
  %1 = load ptr, ptr %fifo_buffer, align 16
  %data_count = getelementptr inbounds nuw i8, ptr %s, i64 3260
  %blksize = getelementptr inbounds nuw i8, ptr %s, i64 3148
  %2 = load i16, ptr %blksize, align 4
  %3 = and i16 %2, 4095
  %data_count.promoted = load i16, ptr %data_count, align 4
  br label %for.body

if.then:                                          ; preds = %entry
  call void @llvm.lifetime.start.p0(i64 16, ptr nonnull %_now.i.i)
  %4 = load i32, ptr @trace_events_enabled_count, align 4
  %tobool.i.i = icmp ne i32 %4, 0
  %5 = load i16, ptr @_TRACE_SDHCI_ERROR_DSTATE, align 2
  %tobool4.i.i = icmp ne i16 %5, 0
  %or.cond.i.i = select i1 %tobool.i.i, i1 %tobool4.i.i, i1 false
  br i1 %or.cond.i.i, label %land.lhs.true5.i.i, label %trace_sdhci_error.exit

land.lhs.true5.i.i:                               ; preds = %if.then
  %6 = load i32, ptr @qemu_loglevel, align 4
  %and.i.i.i = and i32 %6, 32768
  %cmp.i.not.i.i = icmp eq i32 %and.i.i.i, 0
  br i1 %cmp.i.not.i.i, label %trace_sdhci_error.exit, label %if.then.i.i

if.then.i.i:                                      ; preds = %land.lhs.true5.i.i
  %7 = load i8, ptr @message_with_timestamp, align 1
  %tobool7.i.i = trunc i8 %7 to i1
  br i1 %tobool7.i.i, label %if.then8.i.i, label %if.else.i.i

if.then8.i.i:                                     ; preds = %if.then.i.i
  %call9.i.i = call i32 @gettimeofday(ptr noundef nonnull %_now.i.i, ptr noundef null) #12
  %call10.i.i = tail call i32 @qemu_get_thread_id() #12
  %8 = load i64, ptr %_now.i.i, align 8
  %tv_usec.i.i = getelementptr inbounds nuw i8, ptr %_now.i.i, i64 8
  %9 = load i64, ptr %tv_usec.i.i, align 8
  tail call void (ptr, ...) @qemu_log(ptr noundef nonnull @.str.44, i32 noundef %call10.i.i, i64 noundef %8, i64 noundef %9, ptr noundef nonnull @.str.63) #12
  br label %trace_sdhci_error.exit

if.else.i.i:                                      ; preds = %if.then.i.i
  tail call void (ptr, ...) @qemu_log(ptr noundef nonnull @.str.45, ptr noundef nonnull @.str.63) #12
  br label %trace_sdhci_error.exit

trace_sdhci_error.exit:                           ; preds = %if.then, %land.lhs.true5.i.i, %if.then8.i.i, %if.else.i.i
  call void @llvm.lifetime.end.p0(i64 16, ptr nonnull %_now.i.i)
  br label %return

for.cond:                                         ; preds = %for.body
  %inc42 = add nuw nsw i32 %i.038, 1
  %exitcond.not = icmp eq i32 %inc42, %size
  br i1 %exitcond.not, label %return, label %for.body, !llvm.loop !13

for.body:                                         ; preds = %for.body.lr.ph, %for.cond
  %10 = phi i16 [ %data_count.promoted, %for.body.lr.ph ], [ %inc, %for.cond ]
  %i.038 = phi i32 [ 0, %for.body.lr.ph ], [ %inc42, %for.cond ]
  %value.037 = phi i32 [ 0, %for.body.lr.ph ], [ %or, %for.cond ]
  %idxprom = zext i16 %10 to i64
  %arrayidx = getelementptr i8, ptr %1, i64 %idxprom
  %11 = load i8, ptr %arrayidx, align 1
  %conv = zext i8 %11 to i32
  %mul = shl i32 %i.038, 3
  %shl = shl i32 %conv, %mul
  %or = or i32 %shl, %value.037
  %inc = add i16 %10, 1
  store i16 %inc, ptr %data_count, align 4
  %cmp7.not = icmp ult i16 %inc, %3
  br i1 %cmp7.not, label %for.cond, label %if.then9

if.then9:                                         ; preds = %for.body
  call void @llvm.lifetime.start.p0(i64 16, ptr nonnull %_now.i.i21)
  %12 = load i32, ptr @trace_events_enabled_count, align 4
  %tobool.i.i22 = icmp ne i32 %12, 0
  %13 = load i16, ptr @_TRACE_SDHCI_READ_DATAPORT_DSTATE, align 2
  %tobool4.i.i23 = icmp ne i16 %13, 0
  %or.cond.i.i24 = select i1 %tobool.i.i22, i1 %tobool4.i.i23, i1 false
  br i1 %or.cond.i.i24, label %land.lhs.true5.i.i25, label %trace_sdhci_read_dataport.exit

land.lhs.true5.i.i25:                             ; preds = %if.then9
  %14 = load i32, ptr @qemu_loglevel, align 4
  %and.i.i.i26 = and i32 %14, 32768
  %cmp.i.not.i.i27 = icmp eq i32 %and.i.i.i26, 0
  br i1 %cmp.i.not.i.i27, label %trace_sdhci_read_dataport.exit, label %if.then.i.i28

if.then.i.i28:                                    ; preds = %land.lhs.true5.i.i25
  %15 = load i8, ptr @message_with_timestamp, align 1
  %tobool7.i.i29 = trunc i8 %15 to i1
  br i1 %tobool7.i.i29, label %if.then8.i.i31, label %if.else.i.i30

if.then8.i.i31:                                   ; preds = %if.then.i.i28
  %call9.i.i32 = call i32 @gettimeofday(ptr noundef nonnull %_now.i.i21, ptr noundef null) #12
  %call10.i.i33 = tail call i32 @qemu_get_thread_id() #12
  %16 = load i64, ptr %_now.i.i21, align 8
  %tv_usec.i.i34 = getelementptr inbounds nuw i8, ptr %_now.i.i21, i64 8
  %17 = load i64, ptr %tv_usec.i.i34, align 8
  %conv11.i.i = zext i16 %inc to i32
  tail call void (ptr, ...) @qemu_log(ptr noundef nonnull @.str.64, i32 noundef %call10.i.i33, i64 noundef %16, i64 noundef %17, i32 noundef %conv11.i.i) #12
  br label %trace_sdhci_read_dataport.exit

if.else.i.i30:                                    ; preds = %if.then.i.i28
  %conv12.i.i = zext i16 %inc to i32
  tail call void (ptr, ...) @qemu_log(ptr noundef nonnull @.str.65, i32 noundef %conv12.i.i) #12
  br label %trace_sdhci_read_dataport.exit

trace_sdhci_read_dataport.exit:                   ; preds = %if.then9, %land.lhs.true5.i.i25, %if.then8.i.i31, %if.else.i.i30
  call void @llvm.lifetime.end.p0(i64 16, ptr nonnull %_now.i.i21)
  %18 = load i32, ptr %prnsts, align 8
  %and12 = and i32 %18, -2049
  store i32 %and12, ptr %prnsts, align 8
  store i16 0, ptr %data_count, align 4
  %trnmod = getelementptr inbounds nuw i8, ptr %s, i64 3156
  %19 = load i16, ptr %trnmod, align 4
  %20 = and i16 %19, 2
  %tobool.not = icmp eq i16 %20, 0
  br i1 %tobool.not, label %if.end17, label %if.then16

if.then16:                                        ; preds = %trace_sdhci_read_dataport.exit
  %blkcnt = getelementptr inbounds nuw i8, ptr %s, i64 3150
  %21 = load i16, ptr %blkcnt, align 2
  %dec = add i16 %21, -1
  store i16 %dec, ptr %blkcnt, align 2
  br label %if.end17

if.end17:                                         ; preds = %if.then16, %trace_sdhci_read_dataport.exit
  %conv19 = zext i16 %19 to i32
  %and20 = and i32 %conv19, 32
  %cmp21 = icmp eq i32 %and20, 0
  br i1 %cmp21, label %if.then39, label %lor.lhs.false

lor.lhs.false:                                    ; preds = %if.end17
  %and25 = and i32 %conv19, 2
  %tobool26.not = icmp eq i32 %and25, 0
  br i1 %tobool26.not, label %lor.lhs.false31, label %land.lhs.true

land.lhs.true:                                    ; preds = %lor.lhs.false
  %blkcnt27 = getelementptr inbounds nuw i8, ptr %s, i64 3150
  %22 = load i16, ptr %blkcnt27, align 2
  %cmp29 = icmp eq i16 %22, 0
  br i1 %cmp29, label %if.then39, label %lor.lhs.false31

lor.lhs.false31:                                  ; preds = %land.lhs.true, %lor.lhs.false
  %stopped_state = getelementptr inbounds nuw i8, ptr %s, i64 3262
  %23 = load i8, ptr %stopped_state, align 2
  %cmp33 = icmp eq i8 %23, 1
  %and37 = and i32 %18, 4
  %tobool38.not = icmp eq i32 %and37, 0
  %or.cond = select i1 %cmp33, i1 %tobool38.not, i1 false
  br i1 %or.cond, label %if.then39, label %if.else

if.then39:                                        ; preds = %lor.lhs.false31, %land.lhs.true, %if.end17
  tail call fastcc void @sdhci_end_transfer(ptr noundef nonnull %s)
  br label %return

if.else:                                          ; preds = %lor.lhs.false31
  tail call fastcc void @sdhci_read_block_from_card(ptr noundef nonnull %s)
  br label %return

return:                                           ; preds = %for.cond, %for.cond.preheader, %if.else, %if.then39, %trace_sdhci_error.exit
  %retval.0 = phi i32 [ 0, %trace_sdhci_error.exit ], [ %or, %if.then39 ], [ %or, %if.else ], [ 0, %for.cond.preheader ], [ %or, %for.cond ]
  ret i32 %retval.0
}